target datalayout = "e-m:e-p270:32:32-p271:32:32-p272:64:64-i64:64-i128:128-f80:128-n8:16:32:64-S128"
target triple = "x86_64-pc-linux-gnu"

@H5_libinit_g = global i8 0, align 1
@H5_libterm_g = global i8 0, align 1
@.str.30 = private unnamed_addr constant [96 x i8] c"generated/home/dtcxzyw/WorkSpace/Projects/compilers/llvm-opt-benchmark/bench/hdf5/hdf5/src/H5.c\00", align 1
@H5E_FUNC_g = external global i64, align 8
@H5E_CANTINIT_g = external global i64, align 8
@__func__.H5garbage_collect = private unnamed_addr constant [18 x i8] c"H5garbage_collect\00", align 1
@.str.66 = private unnamed_addr constant [30 x i8] c"library initialization failed\00", align 1
@H5E_CANTSET_g = external global i64, align 8
@.str.67 = private unnamed_addr constant [22 x i8] c"can't set API context\00", align 1
@H5E_RESOURCE_g = external global i64, align 8
@H5E_CANTGC_g = external global i64, align 8
@.str.68 = private unnamed_addr constant [30 x i8] c"can't garbage collect objects\00", align 1

; Function Attrs: nounwind uwtable
define i32 @H5garbage_collect() #0 {
  %1 = alloca i32, align 4
  %2 = alloca i8, align 1
  %3 = alloca i8, align 1
  store i32 0, ptr %1, align 4
  store i8 0, ptr %2, align 1
  store i8 0, ptr %3, align 1
  %4 = load i8, ptr @H5_libinit_g, align 1
  %5 = trunc i8 %4 to i1
  br i1 %5, label %10, label %6

6:                                                ; preds = %0
  %7 = load i8, ptr @H5_libterm_g, align 1
  %8 = trunc i8 %7 to i1
  %9 = xor i1 %8, true
  br label %10

10:                                               ; preds = %6, %0
  %11 = phi i1 [ false, %0 ], [ %9, %6 ]
  %12 = xor i1 %11, true
  %13 = xor i1 %12, true
  %14 = zext i1 %13 to i32
  %15 = sext i32 %14 to i64
  %16 = icmp ne i64 %15, 0
  br i1 %16, label %17, label %41

17:                                               ; preds = %10
  %18 = call i32 @H5_init_library()
  %19 = icmp slt i32 %18, 0
  %20 = xor i1 %19, true
  %21 = xor i1 %20, true
  %22 = zext i1 %21 to i32
  %23 = sext i32 %22 to i64
  %24 = icmp ne i64 %23, 0
  br i1 %24, label %25, label %40

25:                                               ; preds = %17
  br label %26

26:                                               ; preds = %25
  br label %27

27:                                               ; preds = %26
  br label %28

28:                                               ; preds = %27
  %29 = load i64, ptr @H5E_FUNC_g, align 8
  %30 = load i64, ptr @H5E_CANTINIT_g, align 8
  %31 = call i32 (ptr, ptr, i32, i64, i64, ptr, ...) @H5E_printf_stack(ptr noundef @.str.30, ptr noundef @__func__.H5garbage_collect, i32 noundef 573, i64 noundef %29, i64 noundef %30, ptr noundef @.str.66)
  br label %32

32:                                               ; preds = %28
  store i8 1, ptr %3, align 1
  %33 = load i8, ptr %3, align 1
  %34 = trunc i8 %33 to i1
  %35 = zext i1 %34 to i8
  store i8 %35, ptr %3, align 1
  br label %36

36:                                               ; preds = %32
  br label %37

37:                                               ; preds = %36
  store i32 -1, ptr %1, align 4
  br label %85

38:                                               ; No predecessors!
  br label %39

39:                                               ; preds = %38
  br label %40

40:                                               ; preds = %39, %17
  br label %41

41:                                               ; preds = %40, %10
  %42 = call i32 @H5CX_push()
  %43 = icmp slt i32 %42, 0
  %44 = xor i1 %43, true
  %45 = xor i1 %44, true
  %46 = zext i1 %45 to i32
  %47 = sext i32 %46 to i64
  %48 = icmp ne i64 %47, 0
  br i1 %48, label %49, label %64

49:                                               ; preds = %41
  br label %50

50:                                               ; preds = %49
  br label %51

51:                                               ; preds = %50
  br label %52

52:                                               ; preds = %51
  %53 = load i64, ptr @H5E_FUNC_g, align 8
  %54 = load i64, ptr @H5E_CANTSET_g, align 8
  %55 = call i32 (ptr, ptr, i32, i64, i64, ptr, ...) @H5E_printf_stack(ptr noundef @.str.30, ptr noundef @__func__.H5garbage_collect, i32 noundef 573, i64 noundef %53, i64 noundef %54, ptr noundef @.str.67)
  br label %56

56:                                               ; preds = %52
  store i8 1, ptr %3, align 1
  %57 = load i8, ptr %3, align 1
  %58 = trunc i8 %57 to i1
  %59 = zext i1 %58 to i8
  store i8 %59, ptr %3, align 1
  br label %60

60:                                               ; preds = %56
  br label %61

61:                                               ; preds = %60
  store i32 -1, ptr %1, align 4
  br label %85

62:                                               ; No predecessors!
  br label %63

63:                                               ; preds = %62
  br label %65

64:                                               ; preds = %41
  store i8 1, ptr %2, align 1
  br label %65

65:                                               ; preds = %64, %63
  %66 = call i32 @H5E_clear_stack()
  %67 = call i32 @H5FL_garbage_coll()
  %68 = icmp slt i32 %67, 0
  br i1 %68, label %69, label %84

69:                                               ; preds = %65
  br label %70

70:                                               ; preds = %69
  br label %71

71:                                               ; preds = %70
  br label %72

72:                                               ; preds = %71
  %73 = load i64, ptr @H5E_RESOURCE_g, align 8
  %74 = load i64, ptr @H5E_CANTGC_g, align 8
  %75 = call i32 (ptr, ptr, i32, i64, i64, ptr, ...) @H5E_printf_stack(ptr noundef @.str.30, ptr noundef @__func__.H5garbage_collect, i32 noundef 577, i64 noundef %73, i64 noundef %74, ptr noundef @.str.68)
  br label %76

76:                                               ; preds = %72
  store i8 1, ptr %3, align 1
  %77 = load i8, ptr %3, align 1
  %78 = trunc i8 %77 to i1
  %79 = zext i1 %78 to i8
  store i8 %79, ptr %3, align 1
  br label %80

80:                                               ; preds = %76
  br label %81

81:                                               ; preds = %80
  store i32 -1, ptr %1, align 4
  br label %85

82:                                               ; No predecessors!
  br label %83

83:                                               ; preds = %82
  br label %84

84:                                               ; preds = %83, %65
  br label %85

85:                                               ; preds = %84, %81, %61, %37
  %86 = load i8, ptr %2, align 1
  %87 = trunc i8 %86 to i1
  %88 = xor i1 %87, true
  %89 = xor i1 %88, true
  %90 = zext i1 %89 to i32
  %91 = sext i32 %90 to i64
  %92 = icmp ne i64 %91, 0
  br i1 %92, label %93, label %95

93:                                               ; preds = %85
  %94 = call i32 @H5CX_pop(i1 noundef zeroext true)
  store i8 0, ptr %2, align 1
  br label %95

95:                                               ; preds = %93, %85
  %96 = load i8, ptr %3, align 1
  %97 = trunc i8 %96 to i1
  %98 = xor i1 %97, true
  %99 = xor i1 %98, true
  %100 = zext i1 %99 to i32
  %101 = sext i32 %100 to i64
  %102 = icmp ne i64 %101, 0
  br i1 %102, label %103, label %105

103:                                              ; preds = %95
  %104 = call i32 @H5E_dump_api_stack()
  br label %105

105:                                              ; preds = %103, %95
  %106 = load i32, ptr %1, align 4
  ret i32 %106
}