; Function Attrs: nounwind uwtable
define range(i32 -1, 1) i32 @H5garbage_collect() local_unnamed_addr #0 {
  %1 = load i8, ptr @H5_libinit_g, align 1
  %2 = trunc i8 %1 to i1
  %3 = load i8, ptr @H5_libterm_g, align 1
  %4 = trunc i8 %3 to i1
  %5 = select i1 %2, i1 true, i1 %4
  br i1 %5, label %13, label %6

6:                                                ; preds = %0
  %7 = tail call i32 @H5_init_library()
  %8 = icmp slt i32 %7, 0
  br i1 %8, label %9, label %13

9:                                                ; preds = %6
  %10 = load i64, ptr @H5E_FUNC_g, align 8
  %11 = load i64, ptr @H5E_CANTINIT_g, align 8
  %12 = tail call i32 (ptr, ptr, i32, i64, i64, ptr, ...) @H5E_printf_stack(ptr noundef nonnull @.str.30, ptr noundef nonnull @__func__.H5garbage_collect, i32 noundef 573, i64 noundef %10, i64 noundef %11, ptr noundef nonnull @.str.66) #21
  br label %.thread16

13:                                               ; preds = %6, %0
  %14 = tail call i32 @H5CX_push() #21
  %15 = icmp slt i32 %14, 0
  br i1 %15, label %16, label %20

16:                                               ; preds = %13
  %17 = load i64, ptr @H5E_FUNC_g, align 8
  %18 = load i64, ptr @H5E_CANTSET_g, align 8
  %19 = tail call i32 (ptr, ptr, i32, i64, i64, ptr, ...) @H5E_printf_stack(ptr noundef nonnull @.str.30, ptr noundef nonnull @__func__.H5garbage_collect, i32 noundef 573, i64 noundef %17, i64 noundef %18, ptr noundef nonnull @.str.67) #21
  br label %.thread16

20:                                               ; preds = %13
  %21 = tail call i32 @H5E_clear_stack() #21
  %22 = tail call i32 @H5FL_garbage_coll() #21
  %23 = icmp slt i32 %22, 0
  br i1 %23, label %.thread21, label %28

.thread21:                                        ; preds = %20
  %24 = load i64, ptr @H5E_RESOURCE_g, align 8
  %25 = load i64, ptr @H5E_CANTGC_g, align 8
  %26 = tail call i32 (ptr, ptr, i32, i64, i64, ptr, ...) @H5E_printf_stack(ptr noundef nonnull @.str.30, ptr noundef nonnull @__func__.H5garbage_collect, i32 noundef 577, i64 noundef %24, i64 noundef %25, ptr noundef nonnull @.str.68) #21
  %27 = tail call i32 @H5CX_pop(i1 noundef zeroext true) #21
  br label %.thread16

28:                                               ; preds = %20
  %29 = tail call i32 @H5CX_pop(i1 noundef zeroext true) #21
  br label %31

.thread16:                                        ; preds = %16, %9, %.thread21
  %30 = tail call i32 @H5E_dump_api_stack() #21
  br label %31

31:                                               ; preds = %28, %.thread16
  %.071119 = phi i32 [ -1, %.thread16 ], [ 0, %28 ]
  ret i32 %.071119
}